target datalayout = "e-m:e-p270:32:32-p271:32:32-p272:64:64-i64:64-i128:128-f80:128-n8:16:32:64-S128"
target triple = "x86_64-pc-linux-gnu"

%"class.Assimp::FBXImporter" = type { %"class.Assimp::BaseImporter", %"struct.Assimp::FBX::ImportSettings" }
%"class.Assimp::BaseImporter" = type { ptr, double, double, %"class.std::__cxx11::basic_string", %"class.std::__exception_ptr::exception_ptr", ptr }
%"class.std::__cxx11::basic_string" = type { %"struct.std::__cxx11::basic_string<char>::_Alloc_hider", i64, %union.anon }
%"struct.std::__cxx11::basic_string<char>::_Alloc_hider" = type { ptr }
%union.anon = type { i64, [8 x i8] }
%"class.std::__exception_ptr::exception_ptr" = type { ptr }
%"struct.Assimp::FBX::ImportSettings" = type { i8, i8, i8, i8, i8, i8, i8, i8, i8, i8, i8, i8, i8, i8, i8, i8 }

@.str.2 = private unnamed_addr constant [36 x i8] c"IMPORT_FBX_READ_ALL_GEOMETRY_LAYERS\00", align 1
@.str.3 = private unnamed_addr constant [30 x i8] c"IMPORT_FBX_READ_ALL_MATERIALS\00", align 1
@.str.4 = private unnamed_addr constant [26 x i8] c"IMPORT_FBX_READ_MATERIALS\00", align 1
@.str.5 = private unnamed_addr constant [25 x i8] c"IMPORT_FBX_READ_TEXTURES\00", align 1
@.str.6 = private unnamed_addr constant [24 x i8] c"IMPORT_FBX_READ_CAMERAS\00", align 1
@.str.7 = private unnamed_addr constant [23 x i8] c"IMPORT_FBX_READ_LIGHTS\00", align 1
@.str.8 = private unnamed_addr constant [27 x i8] c"IMPORT_FBX_READ_ANIMATIONS\00", align 1
@.str.9 = private unnamed_addr constant [24 x i8] c"IMPORT_FBX_READ_WEIGHTS\00", align 1
@.str.10 = private unnamed_addr constant [23 x i8] c"IMPORT_FBX_STRICT_MODE\00", align 1
@.str.11 = private unnamed_addr constant [27 x i8] c"IMPORT_FBX_PRESERVE_PIVOTS\00", align 1
@.str.12 = private unnamed_addr constant [43 x i8] c"IMPORT_FBX_OPTIMIZE_EMPTY_ANIMATION_CURVES\00", align 1
@.str.13 = private unnamed_addr constant [53 x i8] c"AI_CONFIG_IMPORT_FBX_EMBEDDED_TEXTURES_LEGACY_NAMING\00", align 1
@.str.14 = private unnamed_addr constant [36 x i8] c"AI_CONFIG_IMPORT_REMOVE_EMPTY_BONES\00", align 1
@.str.15 = private unnamed_addr constant [27 x i8] c"AI_CONFIG_FBX_CONVERT_TO_M\00", align 1
@.str.16 = private unnamed_addr constant [41 x i8] c"AI_CONFIG_IMPORT_FBX_IGNORE_UP_DIRECTION\00", align 1
@.str.17 = private unnamed_addr constant [42 x i8] c"AI_CONFIG_FBX_USE_SKELETON_BONE_CONTAINER\00", align 1

; Function Attrs: mustprogress uwtable
define linkonce_odr noundef zeroext i1 @_ZNK6Assimp8Importer15GetPropertyBoolEPKcb(ptr noundef nonnull align 8 dereferenceable(8) %0, ptr noundef %1, i1 noundef zeroext %2) #1 comdat align 2 {
  %4 = alloca ptr, align 8
  %5 = alloca ptr, align 8
  %6 = alloca i8, align 1
  store ptr %0, ptr %4, align 8
  store ptr %1, ptr %5, align 8
  %7 = zext i1 %2 to i8
  store i8 %7, ptr %6, align 1
  %8 = load ptr, ptr %4, align 8
  %9 = load ptr, ptr %5, align 8
  %10 = load i8, ptr %6, align 1, !range !3, !noundef !4
  %11 = trunc i8 %10 to i1
  %12 = zext i1 %11 to i32
  %13 = call noundef i32 @_ZNK6Assimp8Importer18GetPropertyIntegerEPKci(ptr noundef nonnull align 8 dereferenceable(8) %8, ptr noundef %9, i32 noundef %12)
  %14 = icmp ne i32 %13, 0
  ret i1 %14
}

; Function Attrs: mustprogress uwtable
define hidden void @_ZN6Assimp11FBXImporter15SetupPropertiesEPKNS_8ImporterE(ptr noundef nonnull align 8 dereferenceable(88) %0, ptr noundef %1) unnamed_addr #1 align 2 {
  %3 = alloca ptr, align 8
  %4 = alloca ptr, align 8
  store ptr %0, ptr %3, align 8
  store ptr %1, ptr %4, align 8
  %5 = load ptr, ptr %3, align 8
  %6 = load ptr, ptr %4, align 8
  %7 = call noundef zeroext i1 @_ZNK6Assimp8Importer15GetPropertyBoolEPKcb(ptr noundef nonnull align 8 dereferenceable(8) %6, ptr noundef @.str.2, i1 noundef zeroext true)
  %8 = getelementptr inbounds nuw %"class.Assimp::FBXImporter", ptr %5, i32 0, i32 1
  %9 = getelementptr inbounds nuw %"struct.Assimp::FBX::ImportSettings", ptr %8, i32 0, i32 1
  %10 = zext i1 %7 to i8
  store i8 %10, ptr %9, align 1
  %11 = load ptr, ptr %4, align 8
  %12 = call noundef zeroext i1 @_ZNK6Assimp8Importer15GetPropertyBoolEPKcb(ptr noundef nonnull align 8 dereferenceable(8) %11, ptr noundef @.str.3, i1 noundef zeroext false)
  %13 = getelementptr inbounds nuw %"class.Assimp::FBXImporter", ptr %5, i32 0, i32 1
  %14 = getelementptr inbounds nuw %"struct.Assimp::FBX::ImportSettings", ptr %13, i32 0, i32 2
  %15 = zext i1 %12 to i8
  store i8 %15, ptr %14, align 2
  %16 = load ptr, ptr %4, align 8
  %17 = call noundef zeroext i1 @_ZNK6Assimp8Importer15GetPropertyBoolEPKcb(ptr noundef nonnull align 8 dereferenceable(8) %16, ptr noundef @.str.4, i1 noundef zeroext true)
  %18 = getelementptr inbounds nuw %"class.Assimp::FBXImporter", ptr %5, i32 0, i32 1
  %19 = getelementptr inbounds nuw %"struct.Assimp::FBX::ImportSettings", ptr %18, i32 0, i32 3
  %20 = zext i1 %17 to i8
  store i8 %20, ptr %19, align 1
  %21 = load ptr, ptr %4, align 8
  %22 = call noundef zeroext i1 @_ZNK6Assimp8Importer15GetPropertyBoolEPKcb(ptr noundef nonnull align 8 dereferenceable(8) %21, ptr noundef @.str.5, i1 noundef zeroext true)
  %23 = getelementptr inbounds nuw %"class.Assimp::FBXImporter", ptr %5, i32 0, i32 1
  %24 = getelementptr inbounds nuw %"struct.Assimp::FBX::ImportSettings", ptr %23, i32 0, i32 4
  %25 = zext i1 %22 to i8
  store i8 %25, ptr %24, align 4
  %26 = load ptr, ptr %4, align 8
  %27 = call noundef zeroext i1 @_ZNK6Assimp8Importer15GetPropertyBoolEPKcb(ptr noundef nonnull align 8 dereferenceable(8) %26, ptr noundef @.str.6, i1 noundef zeroext true)
  %28 = getelementptr inbounds nuw %"class.Assimp::FBXImporter", ptr %5, i32 0, i32 1
  %29 = getelementptr inbounds nuw %"struct.Assimp::FBX::ImportSettings", ptr %28, i32 0, i32 5
  %30 = zext i1 %27 to i8
  store i8 %30, ptr %29, align 1
  %31 = load ptr, ptr %4, align 8
  %32 = call noundef zeroext i1 @_ZNK6Assimp8Importer15GetPropertyBoolEPKcb(ptr noundef nonnull align 8 dereferenceable(8) %31, ptr noundef @.str.7, i1 noundef zeroext true)
  %33 = getelementptr inbounds nuw %"class.Assimp::FBXImporter", ptr %5, i32 0, i32 1
  %34 = getelementptr inbounds nuw %"struct.Assimp::FBX::ImportSettings", ptr %33, i32 0, i32 6
  %35 = zext i1 %32 to i8
  store i8 %35, ptr %34, align 2
  %36 = load ptr, ptr %4, align 8
  %37 = call noundef zeroext i1 @_ZNK6Assimp8Importer15GetPropertyBoolEPKcb(ptr noundef nonnull align 8 dereferenceable(8) %36, ptr noundef @.str.8, i1 noundef zeroext true)
  %38 = getelementptr inbounds nuw %"class.Assimp::FBXImporter", ptr %5, i32 0, i32 1
  %39 = getelementptr inbounds nuw %"struct.Assimp::FBX::ImportSettings", ptr %38, i32 0, i32 7
  %40 = zext i1 %37 to i8
  store i8 %40, ptr %39, align 1
  %41 = load ptr, ptr %4, align 8
  %42 = call noundef zeroext i1 @_ZNK6Assimp8Importer15GetPropertyBoolEPKcb(ptr noundef nonnull align 8 dereferenceable(8) %41, ptr noundef @.str.9, i1 noundef zeroext true)
  %43 = getelementptr inbounds nuw %"class.Assimp::FBXImporter", ptr %5, i32 0, i32 1
  %44 = getelementptr inbounds nuw %"struct.Assimp::FBX::ImportSettings", ptr %43, i32 0, i32 8
  %45 = zext i1 %42 to i8
  store i8 %45, ptr %44, align 8
  %46 = load ptr, ptr %4, align 8
  %47 = call noundef zeroext i1 @_ZNK6Assimp8Importer15GetPropertyBoolEPKcb(ptr noundef nonnull align 8 dereferenceable(8) %46, ptr noundef @.str.10, i1 noundef zeroext false)
  %48 = getelementptr inbounds nuw %"class.Assimp::FBXImporter", ptr %5, i32 0, i32 1
  %49 = getelementptr inbounds nuw %"struct.Assimp::FBX::ImportSettings", ptr %48, i32 0, i32 0
  %50 = zext i1 %47 to i8
  store i8 %50, ptr %49, align 8
  %51 = load ptr, ptr %4, align 8
  %52 = call noundef zeroext i1 @_ZNK6Assimp8Importer15GetPropertyBoolEPKcb(ptr noundef nonnull align 8 dereferenceable(8) %51, ptr noundef @.str.11, i1 noundef zeroext true)
  %53 = getelementptr inbounds nuw %"class.Assimp::FBXImporter", ptr %5, i32 0, i32 1
  %54 = getelementptr inbounds nuw %"struct.Assimp::FBX::ImportSettings", ptr %53, i32 0, i32 10
  %55 = zext i1 %52 to i8
  store i8 %55, ptr %54, align 2
  %56 = load ptr, ptr %4, align 8
  %57 = call noundef zeroext i1 @_ZNK6Assimp8Importer15GetPropertyBoolEPKcb(ptr noundef nonnull align 8 dereferenceable(8) %56, ptr noundef @.str.12, i1 noundef zeroext true)
  %58 = getelementptr inbounds nuw %"class.Assimp::FBXImporter", ptr %5, i32 0, i32 1
  %59 = getelementptr inbounds nuw %"struct.Assimp::FBX::ImportSettings", ptr %58, i32 0, i32 11
  %60 = zext i1 %57 to i8
  store i8 %60, ptr %59, align 1
  %61 = load ptr, ptr %4, align 8
  %62 = call noundef zeroext i1 @_ZNK6Assimp8Importer15GetPropertyBoolEPKcb(ptr noundef nonnull align 8 dereferenceable(8) %61, ptr noundef @.str.13, i1 noundef zeroext false)
  %63 = getelementptr inbounds nuw %"class.Assimp::FBXImporter", ptr %5, i32 0, i32 1
  %64 = getelementptr inbounds nuw %"struct.Assimp::FBX::ImportSettings", ptr %63, i32 0, i32 12
  %65 = zext i1 %62 to i8
  store i8 %65, ptr %64, align 4
  %66 = load ptr, ptr %4, align 8
  %67 = call noundef zeroext i1 @_ZNK6Assimp8Importer15GetPropertyBoolEPKcb(ptr noundef nonnull align 8 dereferenceable(8) %66, ptr noundef @.str.14, i1 noundef zeroext true)
  %68 = getelementptr inbounds nuw %"class.Assimp::FBXImporter", ptr %5, i32 0, i32 1
  %69 = getelementptr inbounds nuw %"struct.Assimp::FBX::ImportSettings", ptr %68, i32 0, i32 13
  %70 = zext i1 %67 to i8
  store i8 %70, ptr %69, align 1
  %71 = load ptr, ptr %4, align 8
  %72 = call noundef zeroext i1 @_ZNK6Assimp8Importer15GetPropertyBoolEPKcb(ptr noundef nonnull align 8 dereferenceable(8) %71, ptr noundef @.str.15, i1 noundef zeroext false)
  %73 = getelementptr inbounds nuw %"class.Assimp::FBXImporter", ptr %5, i32 0, i32 1
  %74 = getelementptr inbounds nuw %"struct.Assimp::FBX::ImportSettings", ptr %73, i32 0, i32 14
  %75 = zext i1 %72 to i8
  store i8 %75, ptr %74, align 2
  %76 = load ptr, ptr %4, align 8
  %77 = call noundef zeroext i1 @_ZNK6Assimp8Importer15GetPropertyBoolEPKcb(ptr noundef nonnull align 8 dereferenceable(8) %76, ptr noundef @.str.16, i1 noundef zeroext false)
  %78 = getelementptr inbounds nuw %"class.Assimp::FBXImporter", ptr %5, i32 0, i32 1
  %79 = getelementptr inbounds nuw %"struct.Assimp::FBX::ImportSettings", ptr %78, i32 0, i32 15
  %80 = zext i1 %77 to i8
  store i8 %80, ptr %79, align 1
  %81 = load ptr, ptr %4, align 8
  %82 = call noundef zeroext i1 @_ZNK6Assimp8Importer15GetPropertyBoolEPKcb(ptr noundef nonnull align 8 dereferenceable(8) %81, ptr noundef @.str.17, i1 noundef zeroext false)
  %83 = getelementptr inbounds nuw %"class.Assimp::FBXImporter", ptr %5, i32 0, i32 1
  %84 = getelementptr inbounds nuw %"struct.Assimp::FBX::ImportSettings", ptr %83, i32 0, i32 9
  %85 = zext i1 %82 to i8
  store i8 %85, ptr %84, align 1
  ret void
}