; Function Attrs: mustprogress uwtable
define hidden void @_ZN6Assimp11FBXImporter15SetupPropertiesEPKNS_8ImporterE(ptr noundef nonnull writeonly align 8 captures(none) dereferenceable(88) initializes((72, 88)) %0, ptr noundef nonnull %1) unnamed_addr #1 align 2 {
  %3 = tail call noundef i32 @_ZNK6Assimp8Importer18GetPropertyIntegerEPKci(ptr noundef nonnull align 8 dereferenceable(8) %1, ptr noundef nonnull @.str.2, i32 noundef 1)
  %4 = icmp ne i32 %3, 0
  %5 = getelementptr inbounds nuw i8, ptr %0, i64 72
  %6 = getelementptr inbounds nuw i8, ptr %0, i64 73
  %7 = zext i1 %4 to i8
  store i8 %7, ptr %6, align 1
  %8 = tail call noundef i32 @_ZNK6Assimp8Importer18GetPropertyIntegerEPKci(ptr noundef nonnull align 8 dereferenceable(8) %1, ptr noundef nonnull @.str.3, i32 noundef 0)
  %9 = icmp ne i32 %8, 0
  %10 = getelementptr inbounds nuw i8, ptr %0, i64 74
  %11 = zext i1 %9 to i8
  store i8 %11, ptr %10, align 2
  %12 = tail call noundef i32 @_ZNK6Assimp8Importer18GetPropertyIntegerEPKci(ptr noundef nonnull align 8 dereferenceable(8) %1, ptr noundef nonnull @.str.4, i32 noundef 1)
  %13 = icmp ne i32 %12, 0
  %14 = getelementptr inbounds nuw i8, ptr %0, i64 75
  %15 = zext i1 %13 to i8
  store i8 %15, ptr %14, align 1
  %16 = tail call noundef i32 @_ZNK6Assimp8Importer18GetPropertyIntegerEPKci(ptr noundef nonnull align 8 dereferenceable(8) %1, ptr noundef nonnull @.str.5, i32 noundef 1)
  %17 = icmp ne i32 %16, 0
  %18 = getelementptr inbounds nuw i8, ptr %0, i64 76
  %19 = zext i1 %17 to i8
  store i8 %19, ptr %18, align 4
  %20 = tail call noundef i32 @_ZNK6Assimp8Importer18GetPropertyIntegerEPKci(ptr noundef nonnull align 8 dereferenceable(8) %1, ptr noundef nonnull @.str.6, i32 noundef 1)
  %21 = icmp ne i32 %20, 0
  %22 = getelementptr inbounds nuw i8, ptr %0, i64 77
  %23 = zext i1 %21 to i8
  store i8 %23, ptr %22, align 1
  %24 = tail call noundef i32 @_ZNK6Assimp8Importer18GetPropertyIntegerEPKci(ptr noundef nonnull align 8 dereferenceable(8) %1, ptr noundef nonnull @.str.7, i32 noundef 1)
  %25 = icmp ne i32 %24, 0
  %26 = getelementptr inbounds nuw i8, ptr %0, i64 78
  %27 = zext i1 %25 to i8
  store i8 %27, ptr %26, align 2
  %28 = tail call noundef i32 @_ZNK6Assimp8Importer18GetPropertyIntegerEPKci(ptr noundef nonnull align 8 dereferenceable(8) %1, ptr noundef nonnull @.str.8, i32 noundef 1)
  %29 = icmp ne i32 %28, 0
  %30 = getelementptr inbounds nuw i8, ptr %0, i64 79
  %31 = zext i1 %29 to i8
  store i8 %31, ptr %30, align 1
  %32 = tail call noundef i32 @_ZNK6Assimp8Importer18GetPropertyIntegerEPKci(ptr noundef nonnull align 8 dereferenceable(8) %1, ptr noundef nonnull @.str.9, i32 noundef 1)
  %33 = icmp ne i32 %32, 0
  %34 = getelementptr inbounds nuw i8, ptr %0, i64 80
  %35 = zext i1 %33 to i8
  store i8 %35, ptr %34, align 8
  %36 = tail call noundef i32 @_ZNK6Assimp8Importer18GetPropertyIntegerEPKci(ptr noundef nonnull align 8 dereferenceable(8) %1, ptr noundef nonnull @.str.10, i32 noundef 0)
  %37 = icmp ne i32 %36, 0
  %38 = zext i1 %37 to i8
  store i8 %38, ptr %5, align 8
  %39 = tail call noundef i32 @_ZNK6Assimp8Importer18GetPropertyIntegerEPKci(ptr noundef nonnull align 8 dereferenceable(8) %1, ptr noundef nonnull @.str.11, i32 noundef 1)
  %40 = icmp ne i32 %39, 0
  %41 = getelementptr inbounds nuw i8, ptr %0, i64 82
  %42 = zext i1 %40 to i8
  store i8 %42, ptr %41, align 2
  %43 = tail call noundef i32 @_ZNK6Assimp8Importer18GetPropertyIntegerEPKci(ptr noundef nonnull align 8 dereferenceable(8) %1, ptr noundef nonnull @.str.12, i32 noundef 1)
  %44 = icmp ne i32 %43, 0
  %45 = getelementptr inbounds nuw i8, ptr %0, i64 83
  %46 = zext i1 %44 to i8
  store i8 %46, ptr %45, align 1
  %47 = tail call noundef i32 @_ZNK6Assimp8Importer18GetPropertyIntegerEPKci(ptr noundef nonnull align 8 dereferenceable(8) %1, ptr noundef nonnull @.str.13, i32 noundef 0)
  %48 = icmp ne i32 %47, 0
  %49 = getelementptr inbounds nuw i8, ptr %0, i64 84
  %50 = zext i1 %48 to i8
  store i8 %50, ptr %49, align 4
  %51 = tail call noundef i32 @_ZNK6Assimp8Importer18GetPropertyIntegerEPKci(ptr noundef nonnull align 8 dereferenceable(8) %1, ptr noundef nonnull @.str.14, i32 noundef 1)
  %52 = icmp ne i32 %51, 0
  %53 = getelementptr inbounds nuw i8, ptr %0, i64 85
  %54 = zext i1 %52 to i8
  store i8 %54, ptr %53, align 1
  %55 = tail call noundef i32 @_ZNK6Assimp8Importer18GetPropertyIntegerEPKci(ptr noundef nonnull align 8 dereferenceable(8) %1, ptr noundef nonnull @.str.15, i32 noundef 0)
  %56 = icmp ne i32 %55, 0
  %57 = getelementptr inbounds nuw i8, ptr %0, i64 86
  %58 = zext i1 %56 to i8
  store i8 %58, ptr %57, align 2
  %59 = tail call noundef i32 @_ZNK6Assimp8Importer18GetPropertyIntegerEPKci(ptr noundef nonnull align 8 dereferenceable(8) %1, ptr noundef nonnull @.str.16, i32 noundef 0)
  %60 = icmp ne i32 %59, 0
  %61 = getelementptr inbounds nuw i8, ptr %0, i64 87
  %62 = zext i1 %60 to i8
  store i8 %62, ptr %61, align 1
  %63 = tail call noundef i32 @_ZNK6Assimp8Importer18GetPropertyIntegerEPKci(ptr noundef nonnull align 8 dereferenceable(8) %1, ptr noundef nonnull @.str.17, i32 noundef 0)
  %64 = icmp ne i32 %63, 0
  %65 = getelementptr inbounds nuw i8, ptr %0, i64 81
  %66 = zext i1 %64 to i8
  store i8 %66, ptr %65, align 1
  ret void
}